; ModuleID = '49/922.c'
source_filename = "49/922.c"
target datalayout = "e-m:e-p270:32:32-p271:32:32-p272:64:64-i64:64-f80:128-n8:16:32:64-S128"
target triple = "x86_64-pc-linux-gnu"

@.str = private unnamed_addr constant [3 x i8] c"%s\00", align 1
@.str.1 = private unnamed_addr constant [4 x i8] c"%s\0A\00", align 1
@.str.2 = private unnamed_addr constant [3 x i8] c"%d\00", align 1

; Function Attrs: noinline nounwind uwtable
define dso_local i32 @main() #0 {
  %1 = alloca i32, align 4
  %2 = alloca [500 x i8], align 16
  %3 = alloca [500 x i8], align 16
  %4 = alloca i32, align 4
  %5 = alloca i32, align 4
  %6 = alloca i32, align 4
  %7 = alloca i32, align 4
  %8 = alloca i32, align 4
  store i32 0, i32* %1, align 4
  %9 = getelementptr inbounds [500 x i8], [500 x i8]* %2, i64 0, i64 0
  %10 = call i32 (i8*, ...) @__isoc99_scanf(i8* getelementptr inbounds ([3 x i8], [3 x i8]* @.str, i64 0, i64 0), i8* %9)
  %11 = getelementptr inbounds [500 x i8], [500 x i8]* %2, i64 0, i64 0
  %12 = call i64 @strlen(i8* %11) #3
  %13 = trunc i64 %12 to i32
  store i32 %13, i32* %4, align 4
  store i32 2, i32* %5, align 4
  br label %14

14:                                               ; preds = %70, %0
  %15 = load i32, i32* %5, align 4
  %16 = load i32, i32* %4, align 4
  %17 = icmp sle i32 %15, %16
  br i1 %17, label %18, label %73

18:                                               ; preds = %14
  store i32 0, i32* %6, align 4
  br label %19

19:                                               ; preds = %66, %18
  %20 = load i32, i32* %6, align 4
  %21 = load i32, i32* %4, align 4
  %22 = add nsw i32 %21, 1
  %23 = load i32, i32* %5, align 4
  %24 = sub nsw i32 %22, %23
  %25 = icmp slt i32 %20, %24
  br i1 %25, label %26, label %69

26:                                               ; preds = %19
  store i32 0, i32* %7, align 4
  br label %27

27:                                               ; preds = %34, %26
  %28 = load i32, i32* %7, align 4
  %29 = icmp slt i32 %28, 500
  br i1 %29, label %30, label %37

30:                                               ; preds = %27
  %31 = load i32, i32* %7, align 4
  %32 = sext i32 %31 to i64
  %33 = getelementptr inbounds [500 x i8], [500 x i8]* %3, i64 0, i64 %32
  store i8 0, i8* %33, align 1
  br label %34

34:                                               ; preds = %30
  %35 = load i32, i32* %7, align 4
  %36 = add nsw i32 %35, 1
  store i32 %36, i32* %7, align 4
  br label %27

37:                                               ; preds = %27
  %38 = load i32, i32* %6, align 4
  store i32 %38, i32* %7, align 4
  br label %39

39:                                               ; preds = %55, %37
  %40 = load i32, i32* %7, align 4
  %41 = load i32, i32* %6, align 4
  %42 = load i32, i32* %5, align 4
  %43 = add nsw i32 %41, %42
  %44 = icmp slt i32 %40, %43
  br i1 %44, label %45, label %58

45:                                               ; preds = %39
  %46 = load i32, i32* %7, align 4
  %47 = sext i32 %46 to i64
  %48 = getelementptr inbounds [500 x i8], [500 x i8]* %2, i64 0, i64 %47
  %49 = load i8, i8* %48, align 1
  %50 = load i32, i32* %7, align 4
  %51 = load i32, i32* %6, align 4
  %52 = sub nsw i32 %50, %51
  %53 = sext i32 %52 to i64
  %54 = getelementptr inbounds [500 x i8], [500 x i8]* %3, i64 0, i64 %53
  store i8 %49, i8* %54, align 1
  br label %55

55:                                               ; preds = %45
  %56 = load i32, i32* %7, align 4
  %57 = add nsw i32 %56, 1
  store i32 %57, i32* %7, align 4
  br label %39

58:                                               ; preds = %39
  %59 = getelementptr inbounds [500 x i8], [500 x i8]* %3, i64 0, i64 0
  %60 = call i32 @f(i8* %59)
  %61 = icmp eq i32 %60, 1
  br i1 %61, label %62, label %65

62:                                               ; preds = %58
  %63 = getelementptr inbounds [500 x i8], [500 x i8]* %3, i64 0, i64 0
  %64 = call i32 (i8*, ...) @printf(i8* getelementptr inbounds ([4 x i8], [4 x i8]* @.str.1, i64 0, i64 0), i8* %63)
  br label %65

65:                                               ; preds = %62, %58
  br label %66

66:                                               ; preds = %65
  %67 = load i32, i32* %6, align 4
  %68 = add nsw i32 %67, 1
  store i32 %68, i32* %6, align 4
  br label %19

69:                                               ; preds = %19
  br label %70

70:                                               ; preds = %69
  %71 = load i32, i32* %5, align 4
  %72 = add nsw i32 %71, 1
  store i32 %72, i32* %5, align 4
  br label %14

73:                                               ; preds = %14
  %74 = call i32 (i8*, ...) @__isoc99_scanf(i8* getelementptr inbounds ([3 x i8], [3 x i8]* @.str.2, i64 0, i64 0), i32* %8)
  ret i32 0
}

declare dso_local i32 @__isoc99_scanf(i8*, ...) #1

; Function Attrs: nounwind readonly
declare dso_local i64 @strlen(i8*) #2

; Function Attrs: noinline nounwind uwtable
define dso_local i32 @f(i8* %0) #0 {
  %2 = alloca i8*, align 8
  %3 = alloca i32, align 4
  %4 = alloca i32, align 4
  %5 = alloca i32, align 4
  %6 = alloca i32, align 4
  store i8* %0, i8** %2, align 8
  store i32 0, i32* %5, align 4
  %7 = load i8*, i8** %2, align 8
  %8 = call i64 @strlen(i8* %7) #3
  %9 = trunc i64 %8 to i32
  store i32 %9, i32* %3, align 4
  store i32 0, i32* %4, align 4
  br label %10

10:                                               ; preds = %35, %1
  %11 = load i32, i32* %4, align 4
  %12 = load i32, i32* %3, align 4
  %13 = icmp slt i32 %11, %12
  br i1 %13, label %14, label %38

14:                                               ; preds = %10
  %15 = load i8*, i8** %2, align 8
  %16 = load i32, i32* %4, align 4
  %17 = sext i32 %16 to i64
  %18 = getelementptr inbounds i8, i8* %15, i64 %17
  %19 = load i8, i8* %18, align 1
  %20 = sext i8 %19 to i32
  %21 = load i8*, i8** %2, align 8
  %22 = load i32, i32* %3, align 4
  %23 = sub nsw i32 %22, 1
  %24 = load i32, i32* %4, align 4
  %25 = sub nsw i32 %23, %24
  %26 = sext i32 %25 to i64
  %27 = getelementptr inbounds i8, i8* %21, i64 %26
  %28 = load i8, i8* %27, align 1
  %29 = sext i8 %28 to i32
  %30 = icmp eq i32 %20, %29
  br i1 %30, label %31, label %34

31:                                               ; preds = %14
  %32 = load i32, i32* %5, align 4
  %33 = add nsw i32 %32, 1
  store i32 %33, i32* %5, align 4
  br label %34

34:                                               ; preds = %31, %14
  br label %35

35:                                               ; preds = %34
  %36 = load i32, i32* %4, align 4
  %37 = add nsw i32 %36, 1
  store i32 %37, i32* %4, align 4
  br label %10

38:                                               ; preds = %10
  %39 = load i32, i32* %5, align 4
  %40 = load i32, i32* %3, align 4
  %41 = icmp eq i32 %39, %40
  br i1 %41, label %42, label %43

42:                                               ; preds = %38
  store i32 1, i32* %6, align 4
  br label %44

43:                                               ; preds = %38
  store i32 0, i32* %6, align 4
  br label %44

44:                                               ; preds = %43, %42
  %45 = load i32, i32* %6, align 4
  ret i32 %45
}

declare dso_local i32 @printf(i8*, ...) #1


!llvm.module.flags = !{!0}
!llvm.ident = !{!1}

!0 = !{i32 1, !"wchar_size", i32 4}
!1 = !{!"clang version 10.0.0-4ubuntu1 "}
